target datalayout = "e-m:e-p270:32:32-p271:32:32-p272:64:64-i64:64-i128:128-f80:128-n8:16:32:64-S128"
target triple = "x86_64-pc-linux-gnu"

%struct.ObjectAddress = type { i32, i32, i32 }
%struct.nameData = type { [64 x i8] }
%struct.CreateOpFamilyStmt = type { i32, ptr, ptr }
%struct.RelationData = type { %struct.RelFileLocator, ptr, i32, i32, i8, i8, i8, i8, i8, i32, i32, i32, i32, ptr, ptr, i32, %struct.LockInfoData, ptr, ptr, ptr, ptr, ptr, i8, ptr, ptr, ptr, ptr, ptr, ptr, i32, ptr, i8, ptr, ptr, i32, i8, i32, ptr, i8, ptr, ptr, ptr, ptr, ptr, ptr, ptr, i32, ptr, ptr, ptr, ptr, ptr, ptr, ptr, ptr, ptr, ptr, ptr, ptr, ptr, ptr, ptr, ptr, ptr, ptr, ptr, i32, i8, ptr }
%struct.RelFileLocator = type { i32, i32, i32 }
%struct.LockInfoData = type { %struct.LockRelId }
%struct.LockRelId = type { i32, i32 }

@.str.1 = private unnamed_addr constant [14 x i8] c"opclasscmds.c\00", align 1
@object_access_hook = external global ptr, align 8
@.str.18 = private unnamed_addr constant [59 x i8] c"operator family \22%s\22 for access method \22%s\22 already exists\00", align 1
@__func__.CreateOpFamily = private unnamed_addr constant [15 x i8] c"CreateOpFamily\00", align 1
@InvalidObjectAddress = external constant %struct.ObjectAddress, align 4

; Function Attrs: inlinehint nounwind uwtable
define internal i64 @PointerGetDatum(ptr noundef %0) #2 {
  %2 = alloca ptr, align 8
  store ptr %0, ptr %2, align 8
  %3 = load ptr, ptr %2, align 8
  %4 = ptrtoint ptr %3 to i64
  ret i64 %4
}

; Function Attrs: inlinehint nounwind uwtable
define internal i64 @NameGetDatum(ptr noundef %0) #2 {
  %2 = alloca ptr, align 8
  store ptr %0, ptr %2, align 8
  %3 = load ptr, ptr %2, align 8
  %4 = getelementptr inbounds nuw %struct.nameData, ptr %3, i32 0, i32 0
  %5 = getelementptr inbounds [64 x i8], ptr %4, i64 0, i64 0
  %6 = call i64 @CStringGetDatum(ptr noundef %5)
  ret i64 %6
}

; Function Attrs: inlinehint nounwind uwtable
define internal i64 @CStringGetDatum(ptr noundef %0) #2 {
  %2 = alloca ptr, align 8
  store ptr %0, ptr %2, align 8
  %3 = load ptr, ptr %2, align 8
  %4 = call i64 @PointerGetDatum(ptr noundef %3)
  ret i64 %4
}

; Function Attrs: inlinehint nounwind uwtable
define internal i64 @ObjectIdGetDatum(i32 noundef %0) #2 {
  %2 = alloca i32, align 4
  store i32 %0, ptr %2, align 4
  %3 = load i32, ptr %2, align 4
  %4 = zext i32 %3 to i64
  ret i64 %4
}

; Function Attrs: nounwind uwtable
define internal { i64, i32 } @CreateOpFamily(ptr noundef %0, ptr noundef %1, i32 noundef %2, i32 noundef %3) #0 {
  %5 = alloca %struct.ObjectAddress, align 4
  %6 = alloca ptr, align 8
  %7 = alloca ptr, align 8
  %8 = alloca i32, align 4
  %9 = alloca i32, align 4
  %10 = alloca i32, align 4
  %11 = alloca ptr, align 8
  %12 = alloca ptr, align 8
  %13 = alloca [5 x i64], align 16
  %14 = alloca [5 x i8], align 1
  %15 = alloca %struct.nameData, align 1
  %16 = alloca %struct.ObjectAddress, align 4
  %17 = alloca { i64, i32 }, align 4
  %18 = alloca { i64, i32 }, align 4
  %19 = alloca { i64, i32 }, align 8
  store ptr %0, ptr %6, align 8
  store ptr %1, ptr %7, align 8
  store i32 %2, ptr %8, align 4
  store i32 %3, ptr %9, align 4
  call void @llvm.lifetime.start.p0(i64 4, ptr %10) #7
  call void @llvm.lifetime.start.p0(i64 8, ptr %11) #7
  call void @llvm.lifetime.start.p0(i64 8, ptr %12) #7
  call void @llvm.lifetime.start.p0(i64 40, ptr %13) #7
  call void @llvm.lifetime.start.p0(i64 5, ptr %14) #7
  call void @llvm.lifetime.start.p0(i64 64, ptr %15) #7
  call void @llvm.lifetime.start.p0(i64 12, ptr %16) #7
  %20 = call ptr @table_open(i32 noundef 2753, i32 noundef 3)
  store ptr %20, ptr %11, align 8
  %21 = load i32, ptr %9, align 4
  %22 = call i64 @ObjectIdGetDatum(i32 noundef %21)
  %23 = load ptr, ptr %7, align 8
  %24 = call i64 @CStringGetDatum(ptr noundef %23)
  %25 = load i32, ptr %8, align 4
  %26 = call i64 @ObjectIdGetDatum(i32 noundef %25)
  %27 = call zeroext i1 @SearchSysCacheExists(i32 noundef 41, i64 noundef %22, i64 noundef %24, i64 noundef %26, i64 noundef 0)
  br i1 %27, label %28, label %44

28:                                               ; preds = %4
  br label %29

29:                                               ; preds = %28
  br i1 true, label %30, label %32

30:                                               ; preds = %29
  %31 = call zeroext i1 @errstart_cold(i32 noundef 21, ptr noundef null) #8
  br i1 %31, label %34, label %41

32:                                               ; preds = %29
  %33 = call zeroext i1 @errstart(i32 noundef 21, ptr noundef null)
  br i1 %33, label %34, label %41

34:                                               ; preds = %32, %30
  %35 = call i32 @errcode(i32 noundef 290948)
  %36 = load ptr, ptr %7, align 8
  %37 = load ptr, ptr %6, align 8
  %38 = getelementptr inbounds nuw %struct.CreateOpFamilyStmt, ptr %37, i32 0, i32 2
  %39 = load ptr, ptr %38, align 8
  %40 = call i32 (ptr, ...) @errmsg(ptr noundef @.str.18, ptr noundef %36, ptr noundef %39)
  call void @errfinish(ptr noundef @.str.1, i32 noundef 268, ptr noundef @__func__.CreateOpFamily)
  br label %41

41:                                               ; preds = %34, %32, %30
  unreachable

42:                                               ; No predecessors!
  br label %43

43:                                               ; preds = %42
  br label %44

44:                                               ; preds = %43, %4
  %45 = getelementptr inbounds [5 x i64], ptr %13, i64 0, i64 0
  call void @llvm.memset.p0.i64(ptr align 16 %45, i8 0, i64 40, i1 false)
  %46 = getelementptr inbounds [5 x i8], ptr %14, i64 0, i64 0
  call void @llvm.memset.p0.i64(ptr align 1 %46, i8 0, i64 5, i1 false)
  %47 = load ptr, ptr %11, align 8
  %48 = call i32 @GetNewOidWithIndex(ptr noundef %47, i32 noundef 2755, i16 noundef signext 1)
  store i32 %48, ptr %10, align 4
  %49 = load i32, ptr %10, align 4
  %50 = call i64 @ObjectIdGetDatum(i32 noundef %49)
  %51 = getelementptr inbounds [5 x i64], ptr %13, i64 0, i64 0
  store i64 %50, ptr %51, align 16
  %52 = load i32, ptr %9, align 4
  %53 = call i64 @ObjectIdGetDatum(i32 noundef %52)
  %54 = getelementptr inbounds [5 x i64], ptr %13, i64 0, i64 1
  store i64 %53, ptr %54, align 8
  %55 = load ptr, ptr %7, align 8
  call void @namestrcpy(ptr noundef %15, ptr noundef %55)
  %56 = call i64 @NameGetDatum(ptr noundef %15)
  %57 = getelementptr inbounds [5 x i64], ptr %13, i64 0, i64 2
  store i64 %56, ptr %57, align 16
  %58 = load i32, ptr %8, align 4
  %59 = call i64 @ObjectIdGetDatum(i32 noundef %58)
  %60 = getelementptr inbounds [5 x i64], ptr %13, i64 0, i64 3
  store i64 %59, ptr %60, align 8
  %61 = call i32 @GetUserId()
  %62 = call i64 @ObjectIdGetDatum(i32 noundef %61)
  %63 = getelementptr inbounds [5 x i64], ptr %13, i64 0, i64 4
  store i64 %62, ptr %63, align 16
  %64 = load ptr, ptr %11, align 8
  %65 = getelementptr inbounds nuw %struct.RelationData, ptr %64, i32 0, i32 14
  %66 = load ptr, ptr %65, align 8
  %67 = getelementptr inbounds [5 x i64], ptr %13, i64 0, i64 0
  %68 = getelementptr inbounds [5 x i8], ptr %14, i64 0, i64 0
  %69 = call ptr @heap_form_tuple(ptr noundef %66, ptr noundef %67, ptr noundef %68)
  store ptr %69, ptr %12, align 8
  %70 = load ptr, ptr %11, align 8
  %71 = load ptr, ptr %12, align 8
  call void @CatalogTupleInsert(ptr noundef %70, ptr noundef %71)
  %72 = load ptr, ptr %12, align 8
  call void @heap_freetuple(ptr noundef %72)
  %73 = getelementptr inbounds nuw %struct.ObjectAddress, ptr %5, i32 0, i32 0
  store i32 2753, ptr %73, align 4
  %74 = load i32, ptr %10, align 4
  %75 = getelementptr inbounds nuw %struct.ObjectAddress, ptr %5, i32 0, i32 1
  store i32 %74, ptr %75, align 4
  %76 = getelementptr inbounds nuw %struct.ObjectAddress, ptr %5, i32 0, i32 2
  store i32 0, ptr %76, align 4
  %77 = getelementptr inbounds nuw %struct.ObjectAddress, ptr %16, i32 0, i32 0
  store i32 2601, ptr %77, align 4
  %78 = load i32, ptr %9, align 4
  %79 = getelementptr inbounds nuw %struct.ObjectAddress, ptr %16, i32 0, i32 1
  store i32 %78, ptr %79, align 4
  %80 = getelementptr inbounds nuw %struct.ObjectAddress, ptr %16, i32 0, i32 2
  store i32 0, ptr %80, align 4
  call void @recordDependencyOn(ptr noundef %5, ptr noundef %16, i32 noundef 97)
  %81 = getelementptr inbounds nuw %struct.ObjectAddress, ptr %16, i32 0, i32 0
  store i32 2615, ptr %81, align 4
  %82 = load i32, ptr %8, align 4
  %83 = getelementptr inbounds nuw %struct.ObjectAddress, ptr %16, i32 0, i32 1
  store i32 %82, ptr %83, align 4
  %84 = getelementptr inbounds nuw %struct.ObjectAddress, ptr %16, i32 0, i32 2
  store i32 0, ptr %84, align 4
  call void @recordDependencyOn(ptr noundef %5, ptr noundef %16, i32 noundef 110)
  %85 = load i32, ptr %10, align 4
  %86 = call i32 @GetUserId()
  call void @recordDependencyOnOwner(i32 noundef 2753, i32 noundef %85, i32 noundef %86)
  call void @recordDependencyOnCurrentExtension(ptr noundef %5, i1 noundef zeroext false)
  %87 = load ptr, ptr %6, align 8
  call void @llvm.memcpy.p0.p0.i64(ptr align 4 %17, ptr align 4 %5, i64 12, i1 false)
  %88 = getelementptr inbounds nuw { i64, i32 }, ptr %17, i32 0, i32 0
  %89 = load i64, ptr %88, align 4
  %90 = getelementptr inbounds nuw { i64, i32 }, ptr %17, i32 0, i32 1
  %91 = load i32, ptr %90, align 4
  call void @llvm.memcpy.p0.p0.i64(ptr align 4 %18, ptr align 4 @InvalidObjectAddress, i64 12, i1 false)
  %92 = getelementptr inbounds nuw { i64, i32 }, ptr %18, i32 0, i32 0
  %93 = load i64, ptr %92, align 4
  %94 = getelementptr inbounds nuw { i64, i32 }, ptr %18, i32 0, i32 1
  %95 = load i32, ptr %94, align 4
  call void @EventTriggerCollectSimpleCommand(i64 %89, i32 %91, i64 %93, i32 %95, ptr noundef %87)
  br label %96

96:                                               ; preds = %44
  %97 = load ptr, ptr @object_access_hook, align 8
  %98 = icmp ne ptr %97, null
  br i1 %98, label %99, label %101

99:                                               ; preds = %96
  %100 = load i32, ptr %10, align 4
  call void @RunObjectPostCreateHook(i32 noundef 2753, i32 noundef %100, i32 noundef 0, i1 noundef zeroext false)
  br label %101

101:                                              ; preds = %99, %96
  br label %102

102:                                              ; preds = %101
  br label %103

103:                                              ; preds = %102
  %104 = load ptr, ptr %11, align 8
  call void @table_close(ptr noundef %104, i32 noundef 3)
  call void @llvm.lifetime.end.p0(i64 12, ptr %16) #7
  call void @llvm.lifetime.end.p0(i64 64, ptr %15) #7
  call void @llvm.lifetime.end.p0(i64 5, ptr %14) #7
  call void @llvm.lifetime.end.p0(i64 40, ptr %13) #7
  call void @llvm.lifetime.end.p0(i64 8, ptr %12) #7
  call void @llvm.lifetime.end.p0(i64 8, ptr %11) #7
  call void @llvm.lifetime.end.p0(i64 4, ptr %10) #7
  call void @llvm.memcpy.p0.p0.i64(ptr align 8 %19, ptr align 4 %5, i64 12, i1 false)
  %105 = load { i64, i32 }, ptr %19, align 8
  ret { i64, i32 } %105
}