; Function Attrs: nounwind uwtable
define internal fastcc { i64, i32 } @CreateOpFamily(ptr noundef %0, ptr noundef %1, i32 noundef %2, i32 noundef %3) unnamed_addr #0 {
  %5 = alloca %struct.ObjectAddress, align 8
  %6 = alloca [5 x i64], align 16
  %7 = alloca [5 x i8], align 1
  %8 = alloca %struct.nameData, align 1
  %9 = alloca %struct.ObjectAddress, align 4
  call void @llvm.lifetime.start.p0(i64 40, ptr nonnull %6) #6
  call void @llvm.lifetime.start.p0(i64 5, ptr nonnull %7) #6
  call void @llvm.lifetime.start.p0(i64 64, ptr nonnull %8) #6
  call void @llvm.lifetime.start.p0(i64 12, ptr nonnull %9) #6
  %10 = tail call ptr @table_open(i32 noundef 2753, i32 noundef 3) #6
  %11 = zext i32 %3 to i64
  %12 = ptrtoint ptr %1 to i64
  %13 = zext i32 %2 to i64
  %14 = tail call zeroext i1 @SearchSysCacheExists(i32 noundef 41, i64 noundef %11, i64 noundef %12, i64 noundef %13, i64 noundef 0) #6
  br i1 %14, label %15, label %21

15:                                               ; preds = %4
  %16 = tail call zeroext i1 @errstart_cold(i32 noundef 21, ptr noundef null) #7
  tail call void @llvm.assume(i1 %16)
  %17 = tail call i32 @errcode(i32 noundef 290948) #6
  %18 = getelementptr inbounds nuw i8, ptr %0, i64 16
  %19 = load ptr, ptr %18, align 8
  %20 = tail call i32 (ptr, ...) @errmsg(ptr noundef nonnull @.str.18, ptr noundef %1, ptr noundef %19) #6
  tail call void @errfinish(ptr noundef nonnull @.str.1, i32 noundef 268, ptr noundef nonnull @__func__.CreateOpFamily) #6
  unreachable

21:                                               ; preds = %4
  call void @llvm.memset.p0.i64(ptr noundef nonnull align 1 dereferenceable(5) %7, i8 0, i64 5, i1 false)
  %22 = tail call i32 @GetNewOidWithIndex(ptr noundef %10, i32 noundef 2755, i16 noundef signext 1) #6
  %23 = zext i32 %22 to i64
  store i64 %23, ptr %6, align 16
  %24 = getelementptr inbounds nuw i8, ptr %6, i64 8
  store i64 %11, ptr %24, align 8
  call void @namestrcpy(ptr noundef nonnull %8, ptr noundef %1) #6
  %25 = ptrtoint ptr %8 to i64
  %26 = getelementptr inbounds nuw i8, ptr %6, i64 16
  store i64 %25, ptr %26, align 16
  %27 = getelementptr inbounds nuw i8, ptr %6, i64 24
  store i64 %13, ptr %27, align 8
  %28 = call i32 @GetUserId() #6
  %29 = zext i32 %28 to i64
  %30 = getelementptr inbounds nuw i8, ptr %6, i64 32
  store i64 %29, ptr %30, align 16
  %31 = getelementptr inbounds nuw i8, ptr %10, i64 64
  %32 = load ptr, ptr %31, align 8
  %33 = call ptr @heap_form_tuple(ptr noundef %32, ptr noundef nonnull %6, ptr noundef nonnull %7) #6
  call void @CatalogTupleInsert(ptr noundef %10, ptr noundef %33) #6
  call void @heap_freetuple(ptr noundef %33) #6
  store i32 2753, ptr %5, align 8
  %34 = getelementptr inbounds nuw i8, ptr %5, i64 4
  store i32 %22, ptr %34, align 4
  %35 = getelementptr inbounds nuw i8, ptr %5, i64 8
  store i32 0, ptr %35, align 8
  store i32 2601, ptr %9, align 4
  %36 = getelementptr inbounds nuw i8, ptr %9, i64 4
  store i32 %3, ptr %36, align 4
  %37 = getelementptr inbounds nuw i8, ptr %9, i64 8
  store i32 0, ptr %37, align 4
  call void @recordDependencyOn(ptr noundef nonnull %5, ptr noundef nonnull %9, i32 noundef 97) #6
  store i32 2615, ptr %9, align 4
  store i32 %2, ptr %36, align 4
  store i32 0, ptr %37, align 4
  call void @recordDependencyOn(ptr noundef nonnull %5, ptr noundef nonnull %9, i32 noundef 110) #6
  %38 = call i32 @GetUserId() #6
  call void @recordDependencyOnOwner(i32 noundef 2753, i32 noundef %22, i32 noundef %38) #6
  call void @recordDependencyOnCurrentExtension(ptr noundef nonnull %5, i1 noundef zeroext false) #6
  %.sroa.03.0.copyload = load i64, ptr %5, align 8
  %.sroa.24.0.copyload = load i32, ptr %35, align 8
  %.sroa.01.0.copyload = load i64, ptr @InvalidObjectAddress, align 4
  %.sroa.22.0.copyload = load i32, ptr getelementptr inbounds nuw (i8, ptr @InvalidObjectAddress, i64 8), align 4
  call void @EventTriggerCollectSimpleCommand(i64 %.sroa.03.0.copyload, i32 %.sroa.24.0.copyload, i64 %.sroa.01.0.copyload, i32 %.sroa.22.0.copyload, ptr noundef %0) #6
  %39 = load ptr, ptr @object_access_hook, align 8
  %.not = icmp eq ptr %39, null
  br i1 %.not, label %41, label %40

40:                                               ; preds = %21
  call void @RunObjectPostCreateHook(i32 noundef 2753, i32 noundef %22, i32 noundef 0, i1 noundef zeroext false) #6
  br label %41

41:                                               ; preds = %40, %21
  call void @table_close(ptr noundef nonnull %10, i32 noundef 3) #6
  call void @llvm.lifetime.end.p0(i64 12, ptr nonnull %9) #6
  call void @llvm.lifetime.end.p0(i64 64, ptr nonnull %8) #6
  call void @llvm.lifetime.end.p0(i64 5, ptr nonnull %7) #6
  call void @llvm.lifetime.end.p0(i64 40, ptr nonnull %6) #6
  %.sroa.0.0.copyload = load i64, ptr %5, align 8
  %.sroa.2.0.copyload = load i32, ptr %35, align 8
  %.fca.0.insert = insertvalue { i64, i32 } poison, i64 %.sroa.0.0.copyload, 0
  %.fca.1.insert = insertvalue { i64, i32 } %.fca.0.insert, i32 %.sroa.2.0.copyload, 1
  ret { i64, i32 } %.fca.1.insert
}